target datalayout = "e-m:e-p270:32:32-p271:32:32-p272:64:64-i64:64-i128:128-f80:128-n8:16:32:64-S128"
target triple = "x86_64-pc-linux-gnu"

%struct.CVodeMemRec = type { double, ptr, ptr, i32, i32, i32, double, double, ptr, i32, ptr, ptr, i32, ptr, i32, i32, double, double, ptr, i32, i32, i32, ptr, ptr, ptr, i32, i32, ptr, ptr, ptr, i32, double, i32, i32, double, ptr, ptr, i32, ptr, ptr, i32, i32, i32, double, ptr, ptr, [13 x ptr], ptr, ptr, ptr, ptr, ptr, [13 x ptr], ptr, ptr, ptr, ptr, [13 x ptr], ptr, ptr, ptr, ptr, ptr, i32, [13 x ptr], ptr, ptr, ptr, ptr, ptr, i32, double, i32, i32, i32, i32, i32, double, double, double, double, double, double, double, double, [14 x double], [6 x double], [13 x double], double, double, double, double, double, double, double, double, double, double, double, i32, ptr, i32, i64, i32, i32, i32, i32, i32, double, double, double, i64, i64, i64, i64, i64, i64, i64, i64, i64, ptr, i64, i64, ptr, i64, i64, i64, i64, i64, i64, i32, i64, i64, i64, i64, i64, i64, double, double, double, ptr, ptr, ptr, ptr, ptr, i32, i32, i64, double, double, double, i32, double, i32, i32, i32, i32, i32, i32, i32, i32, i32, i32, i32, i32, i32, i32, i32, i32, ptr, ptr, ptr, i32, [6 x [4 x double]], i32, i64, ptr, i32, ptr, ptr, double, double, double, ptr, ptr, ptr, double, double, i32, i32, i64, ptr, i32, i32, ptr, i32 }
%struct.CVadjMemRec = type { double, double, i32, i32, double, ptr, i32, ptr, i32, ptr, i32, ptr, i64, ptr, i64, i32, ptr, ptr, ptr, ptr, i32, i32, i32, i32, [13 x ptr], [13 x ptr], [13 x double], ptr, ptr, i64 }
%struct.CVodeBMemRec = type { i32, double, ptr, i32, i32, ptr, ptr, ptr, ptr, ptr, ptr, ptr, ptr, ptr, double, ptr, ptr }

; Function Attrs: nounwind uwtable
define internal i32 @CVArhsQ(double noundef %0, ptr noundef %1, ptr noundef %2, ptr noundef %3) #0 {
  %5 = alloca double, align 8
  %6 = alloca ptr, align 8
  %7 = alloca ptr, align 8
  %8 = alloca ptr, align 8
  %9 = alloca ptr, align 8
  %10 = alloca ptr, align 8
  %11 = alloca ptr, align 8
  %12 = alloca i32, align 4
  %13 = alloca i32, align 4
  store double %0, ptr %5, align 8, !tbaa !71
  store ptr %1, ptr %6, align 8, !tbaa !72
  store ptr %2, ptr %7, align 8, !tbaa !72
  store ptr %3, ptr %8, align 8, !tbaa !3
  call void @llvm.lifetime.start.p0(i64 8, ptr %9) #5
  call void @llvm.lifetime.start.p0(i64 8, ptr %10) #5
  call void @llvm.lifetime.start.p0(i64 8, ptr %11) #5
  call void @llvm.lifetime.start.p0(i64 4, ptr %12) #5
  call void @llvm.lifetime.start.p0(i64 4, ptr %13) #5
  %14 = load ptr, ptr %8, align 8, !tbaa !3
  store ptr %14, ptr %9, align 8, !tbaa !11
  %15 = load ptr, ptr %9, align 8, !tbaa !11
  %16 = getelementptr inbounds nuw %struct.CVodeMemRec, ptr %15, i32 0, i32 194
  %17 = load ptr, ptr %16, align 8, !tbaa !15
  store ptr %17, ptr %10, align 8, !tbaa !13
  %18 = load ptr, ptr %10, align 8, !tbaa !13
  %19 = getelementptr inbounds nuw %struct.CVadjMemRec, ptr %18, i32 0, i32 7
  %20 = load ptr, ptr %19, align 8, !tbaa !47
  store ptr %20, ptr %11, align 8, !tbaa !132
  %21 = load ptr, ptr %10, align 8, !tbaa !13
  %22 = getelementptr inbounds nuw %struct.CVadjMemRec, ptr %21, i32 0, i32 23
  %23 = load i32, ptr %22, align 4, !tbaa !45
  %24 = icmp ne i32 %23, 0
  br i1 %24, label %25, label %38

25:                                               ; preds = %4
  %26 = load ptr, ptr %10, align 8, !tbaa !13
  %27 = getelementptr inbounds nuw %struct.CVadjMemRec, ptr %26, i32 0, i32 19
  %28 = load ptr, ptr %27, align 8, !tbaa !41
  %29 = load ptr, ptr %9, align 8, !tbaa !11
  %30 = load double, ptr %5, align 8, !tbaa !71
  %31 = load ptr, ptr %10, align 8, !tbaa !13
  %32 = getelementptr inbounds nuw %struct.CVadjMemRec, ptr %31, i32 0, i32 27
  %33 = load ptr, ptr %32, align 8, !tbaa !55
  %34 = load ptr, ptr %10, align 8, !tbaa !13
  %35 = getelementptr inbounds nuw %struct.CVadjMemRec, ptr %34, i32 0, i32 28
  %36 = load ptr, ptr %35, align 8, !tbaa !57
  %37 = call i32 %28(ptr noundef %29, double noundef %30, ptr noundef %33, ptr noundef %36)
  store i32 %37, ptr %12, align 4, !tbaa !9
  br label %48

38:                                               ; preds = %4
  %39 = load ptr, ptr %10, align 8, !tbaa !13
  %40 = getelementptr inbounds nuw %struct.CVadjMemRec, ptr %39, i32 0, i32 19
  %41 = load ptr, ptr %40, align 8, !tbaa !41
  %42 = load ptr, ptr %9, align 8, !tbaa !11
  %43 = load double, ptr %5, align 8, !tbaa !71
  %44 = load ptr, ptr %10, align 8, !tbaa !13
  %45 = getelementptr inbounds nuw %struct.CVadjMemRec, ptr %44, i32 0, i32 27
  %46 = load ptr, ptr %45, align 8, !tbaa !55
  %47 = call i32 %41(ptr noundef %42, double noundef %43, ptr noundef %46, ptr noundef null)
  store i32 %47, ptr %12, align 4, !tbaa !9
  br label %48

48:                                               ; preds = %38, %25
  %49 = load ptr, ptr %11, align 8, !tbaa !132
  %50 = getelementptr inbounds nuw %struct.CVodeBMemRec, ptr %49, i32 0, i32 4
  %51 = load i32, ptr %50, align 4, !tbaa !227
  %52 = icmp ne i32 %51, 0
  br i1 %52, label %53, label %70

53:                                               ; preds = %48
  %54 = load ptr, ptr %11, align 8, !tbaa !132
  %55 = getelementptr inbounds nuw %struct.CVodeBMemRec, ptr %54, i32 0, i32 8
  %56 = load ptr, ptr %55, align 8, !tbaa !222
  %57 = load double, ptr %5, align 8, !tbaa !71
  %58 = load ptr, ptr %10, align 8, !tbaa !13
  %59 = getelementptr inbounds nuw %struct.CVadjMemRec, ptr %58, i32 0, i32 27
  %60 = load ptr, ptr %59, align 8, !tbaa !55
  %61 = load ptr, ptr %10, align 8, !tbaa !13
  %62 = getelementptr inbounds nuw %struct.CVadjMemRec, ptr %61, i32 0, i32 28
  %63 = load ptr, ptr %62, align 8, !tbaa !57
  %64 = load ptr, ptr %6, align 8, !tbaa !72
  %65 = load ptr, ptr %7, align 8, !tbaa !72
  %66 = load ptr, ptr %11, align 8, !tbaa !132
  %67 = getelementptr inbounds nuw %struct.CVodeBMemRec, ptr %66, i32 0, i32 9
  %68 = load ptr, ptr %67, align 8, !tbaa !223
  %69 = call i32 %56(double noundef %57, ptr noundef %60, ptr noundef %63, ptr noundef %64, ptr noundef %65, ptr noundef %68)
  store i32 %69, ptr %13, align 4, !tbaa !9
  br label %84

70:                                               ; preds = %48
  %71 = load ptr, ptr %11, align 8, !tbaa !132
  %72 = getelementptr inbounds nuw %struct.CVodeBMemRec, ptr %71, i32 0, i32 7
  %73 = load ptr, ptr %72, align 8, !tbaa !221
  %74 = load double, ptr %5, align 8, !tbaa !71
  %75 = load ptr, ptr %10, align 8, !tbaa !13
  %76 = getelementptr inbounds nuw %struct.CVadjMemRec, ptr %75, i32 0, i32 27
  %77 = load ptr, ptr %76, align 8, !tbaa !55
  %78 = load ptr, ptr %6, align 8, !tbaa !72
  %79 = load ptr, ptr %7, align 8, !tbaa !72
  %80 = load ptr, ptr %11, align 8, !tbaa !132
  %81 = getelementptr inbounds nuw %struct.CVodeBMemRec, ptr %80, i32 0, i32 9
  %82 = load ptr, ptr %81, align 8, !tbaa !223
  %83 = call i32 %73(double noundef %74, ptr noundef %77, ptr noundef %78, ptr noundef %79, ptr noundef %82)
  store i32 %83, ptr %13, align 4, !tbaa !9
  br label %84

84:                                               ; preds = %70, %53
  %85 = load i32, ptr %13, align 4, !tbaa !9
  call void @llvm.lifetime.end.p0(i64 4, ptr %13) #5
  call void @llvm.lifetime.end.p0(i64 4, ptr %12) #5
  call void @llvm.lifetime.end.p0(i64 8, ptr %11) #5
  call void @llvm.lifetime.end.p0(i64 8, ptr %10) #5
  call void @llvm.lifetime.end.p0(i64 8, ptr %9) #5
  ret i32 %85
}